target datalayout = "e-m:e-p270:32:32-p271:32:32-p272:64:64-i64:64-i128:128-f80:128-n8:16:32:64-S128"
target triple = "x86_64-pc-linux-gnu"

%struct.expert_field = type { i32, i32 }
%struct._asn1_ctx_t = type { i32, i32, i8, ptr, ptr, ptr, ptr, ptr, %struct.anon, %struct.anon.2, %struct.anon.3, ptr }
%struct.anon = type { i32, i8, i8, i8, ptr, ptr, i32, i32, ptr, ptr, ptr, %union.anon }
%union.anon = type { %struct.anon.0 }
%struct.anon.0 = type { ptr }
%struct.anon.2 = type { ptr, ptr, ptr }
%struct.anon.3 = type { i32, i8, ptr, i32, i32, ptr, ptr, ptr, %union.anon.4 }
%union.anon.4 = type { %struct.anon.5 }
%struct.anon.5 = type { ptr }

@ei_ber_size_constraint_value = internal global %struct.expert_field zeroinitializer, align 4
@.str.346 = private unnamed_addr constant [51 x i8] c"Size constraint: value too small: %ld (%ld .. %ld)\00", align 1
@.str.347 = private unnamed_addr constant [49 x i8] c"Size constraint: value too big: %ld (%ld .. %ld)\00", align 1

; Function Attrs: null_pointer_is_valid sspstrong uwtable
define internal void @ber_check_value64(i64 noundef %0, i64 noundef %1, i64 noundef %2, ptr noundef %3, ptr noundef %4) #0 {
  %6 = alloca i64, align 8
  %7 = alloca i64, align 8
  %8 = alloca i64, align 8
  %9 = alloca ptr, align 8
  %10 = alloca ptr, align 8
  store i64 %0, ptr %6, align 8
  store i64 %1, ptr %7, align 8
  store i64 %2, ptr %8, align 8
  store ptr %3, ptr %9, align 8
  store ptr %4, ptr %10, align 8
  %11 = load i64, ptr %7, align 8
  %12 = icmp ne i64 %11, -1
  br i1 %12, label %13, label %26

13:                                               ; preds = %5
  %14 = load i64, ptr %6, align 8
  %15 = load i64, ptr %7, align 8
  %16 = icmp slt i64 %14, %15
  br i1 %16, label %17, label %26

17:                                               ; preds = %13
  %18 = load ptr, ptr %9, align 8
  %19 = getelementptr inbounds nuw %struct._asn1_ctx_t, ptr %18, i32 0, i32 3
  %20 = load ptr, ptr %19, align 8
  %21 = load ptr, ptr %10, align 8
  %22 = load i64, ptr %6, align 8
  %23 = load i64, ptr %7, align 8
  %24 = load i64, ptr %8, align 8
  %25 = call ptr (ptr, ptr, ptr, ptr, ...) @expert_add_info_format(ptr noundef %20, ptr noundef %21, ptr noundef @ei_ber_size_constraint_value, ptr noundef @.str.346, i64 noundef %22, i64 noundef %23, i64 noundef %24)
  br label %43

26:                                               ; preds = %13, %5
  %27 = load i64, ptr %8, align 8
  %28 = icmp ne i64 %27, -1
  br i1 %28, label %29, label %42

29:                                               ; preds = %26
  %30 = load i64, ptr %6, align 8
  %31 = load i64, ptr %8, align 8
  %32 = icmp sgt i64 %30, %31
  br i1 %32, label %33, label %42

33:                                               ; preds = %29
  %34 = load ptr, ptr %9, align 8
  %35 = getelementptr inbounds nuw %struct._asn1_ctx_t, ptr %34, i32 0, i32 3
  %36 = load ptr, ptr %35, align 8
  %37 = load ptr, ptr %10, align 8
  %38 = load i64, ptr %6, align 8
  %39 = load i64, ptr %7, align 8
  %40 = load i64, ptr %8, align 8
  %41 = call ptr (ptr, ptr, ptr, ptr, ...) @expert_add_info_format(ptr noundef %36, ptr noundef %37, ptr noundef @ei_ber_size_constraint_value, ptr noundef @.str.347, i64 noundef %38, i64 noundef %39, i64 noundef %40)
  br label %42

42:                                               ; preds = %33, %29, %26
  br label %43

43:                                               ; preds = %42, %17
  ret void
}

; Function Attrs: null_pointer_is_valid sspstrong uwtable
define hidden i32 @dissect_ber_constrained_integer64(i1 noundef zeroext %0, ptr noundef %1, ptr noundef %2, ptr noundef %3, i32 noundef %4, i64 noundef %5, i64 noundef %6, i32 noundef %7, ptr noundef %8) #0 {
  %10 = alloca i8, align 1
  %11 = alloca ptr, align 8
  %12 = alloca ptr, align 8
  %13 = alloca ptr, align 8
  %14 = alloca i32, align 4
  %15 = alloca i64, align 8
  %16 = alloca i64, align 8
  %17 = alloca i32, align 4
  %18 = alloca ptr, align 8
  %19 = alloca i64, align 8
  %20 = zext i1 %0 to i8
  store i8 %20, ptr %10, align 1
  store ptr %1, ptr %11, align 8
  store ptr %2, ptr %12, align 8
  store ptr %3, ptr %13, align 8
  store i32 %4, ptr %14, align 4
  store i64 %5, ptr %15, align 8
  store i64 %6, ptr %16, align 8
  store i32 %7, ptr %17, align 4
  store ptr %8, ptr %18, align 8
  call void @llvm.lifetime.start.p0(i64 8, ptr %19) #12
  %21 = load i8, ptr %10, align 1, !range !6, !noundef !7
  %22 = trunc i8 %21 to i1
  %23 = load ptr, ptr %11, align 8
  %24 = load ptr, ptr %12, align 8
  %25 = load ptr, ptr %13, align 8
  %26 = load i32, ptr %14, align 4
  %27 = load i32, ptr %17, align 4
  %28 = call i32 @dissect_ber_integer64(i1 noundef zeroext %22, ptr noundef %23, ptr noundef %24, ptr noundef %25, i32 noundef %26, i32 noundef %27, ptr noundef %19)
  store i32 %28, ptr %14, align 4
  %29 = load ptr, ptr %18, align 8
  %30 = icmp ne ptr %29, null
  br i1 %30, label %31, label %34

31:                                               ; preds = %9
  %32 = load i64, ptr %19, align 8
  %33 = load ptr, ptr %18, align 8
  store i64 %32, ptr %33, align 8
  br label %34

34:                                               ; preds = %31, %9
  %35 = load i64, ptr %19, align 8
  %36 = load i64, ptr %15, align 8
  %37 = load i64, ptr %16, align 8
  %38 = load ptr, ptr %11, align 8
  %39 = load ptr, ptr %11, align 8
  %40 = getelementptr inbounds nuw %struct._asn1_ctx_t, ptr %39, i32 0, i32 4
  %41 = load ptr, ptr %40, align 8
  call void @ber_check_value64(i64 noundef %35, i64 noundef %36, i64 noundef %37, ptr noundef %38, ptr noundef %41)
  %42 = load i32, ptr %14, align 4
  call void @llvm.lifetime.end.p0(i64 8, ptr %19) #12
  ret i32 %42
}