; Function Attrs: null_pointer_is_valid sspstrong uwtable
define hidden i32 @dissect_ber_constrained_integer64(i1 noundef zeroext %0, ptr noundef captures(none) %1, ptr noundef %2, ptr noundef %3, i32 noundef %4, i64 noundef %5, i64 noundef %6, i32 noundef %7, ptr noundef writeonly captures(address_is_null) %8) local_unnamed_addr #0 {
  %10 = alloca i64, align 8
  call void @llvm.lifetime.start.p0(i64 8, ptr nonnull %10) #14
  %11 = call i32 @dissect_ber_integer64(i1 noundef zeroext %0, ptr noundef %1, ptr noundef %2, ptr noundef %3, i32 noundef %4, i32 noundef %7, ptr noundef nonnull %10)
  %.not = icmp eq ptr %8, null
  %.pre = load i64, ptr %10, align 8
  br i1 %.not, label %13, label %12

12:                                               ; preds = %9
  store i64 %.pre, ptr %8, align 8
  br label %13

13:                                               ; preds = %12, %9
  %14 = getelementptr inbounds nuw i8, ptr %1, i64 24
  %15 = load ptr, ptr %14, align 8
  %.not.i = icmp ne i64 %5, -1
  %16 = icmp slt i64 %.pre, %5
  %or.cond.i = and i1 %.not.i, %16
  br i1 %or.cond.i, label %.sink.split.i, label %17

17:                                               ; preds = %13
  %.not17.i = icmp ne i64 %6, -1
  %18 = icmp sgt i64 %.pre, %6
  %or.cond18.i = and i1 %.not17.i, %18
  br i1 %or.cond18.i, label %.sink.split.i, label %ber_check_value64.exit

.sink.split.i:                                    ; preds = %17, %13
  %.str.347.sink.i = phi ptr [ @.str.346, %13 ], [ @.str.347, %17 ]
  %19 = getelementptr inbounds nuw i8, ptr %1, i64 16
  %20 = load ptr, ptr %19, align 8
  %21 = call ptr (ptr, ptr, ptr, ptr, ...) @expert_add_info_format(ptr noundef %20, ptr noundef %15, ptr noundef nonnull @ei_ber_size_constraint_value, ptr noundef nonnull %.str.347.sink.i, i64 noundef %.pre, i64 noundef %5, i64 noundef %6)
  br label %ber_check_value64.exit

ber_check_value64.exit:                           ; preds = %17, %.sink.split.i
  call void @llvm.lifetime.end.p0(i64 8, ptr nonnull %10) #14
  ret i32 %11
}